; Function Attrs: nounwind sspstrong uwtable
define internal i64 @ossl_ts_req_set_msg_imprint(i64 noundef %0, i64 noundef %1) #0 {
  %3 = alloca i64, align 8
  store i64 %1, ptr %3, align 8, !tbaa !6
  %4 = call i64 @rb_string_value(ptr noundef nonnull %3) #7
  %5 = call ptr @rb_check_typeddata(i64 noundef %0, ptr noundef nonnull @ossl_ts_req_type) #7
  %.not = icmp eq ptr %5, null
  br i1 %.not, label %6, label %8

6:                                                ; preds = %2
  %7 = load i64, ptr @rb_eRuntimeError, align 8, !tbaa !6
  call void (i64, ptr, ...) @ossl_raise(i64 noundef %7, ptr noundef nonnull @.str.57) #8
  unreachable

8:                                                ; preds = %2
  %9 = call ptr @TS_REQ_get_msg_imprint(ptr noundef nonnull %5) #7
  %10 = load i64, ptr %3, align 8, !tbaa !6
  %11 = inttoptr i64 %10 to ptr
  %12 = load i64, ptr %11, align 8, !tbaa !32, !noalias !69
  %13 = and i64 %12, 8192
  %.not.i.i = icmp eq i64 %13, 0
  %14 = getelementptr inbounds nuw i8, ptr %11, i64 24
  br i1 %.not.i.i, label %RSTRING_PTR.exit, label %15

15:                                               ; preds = %8
  %.sroa.2.0.copyload.i = load ptr, ptr %14, align 8
  br label %RSTRING_PTR.exit

RSTRING_PTR.exit:                                 ; preds = %8, %15
  %.sroa.2.0.i = phi ptr [ %.sroa.2.0.copyload.i, %15 ], [ %14, %8 ]
  %16 = getelementptr inbounds nuw i8, ptr %11, i64 16
  %17 = load i64, ptr %16, align 8, !tbaa !72
  %18 = add i64 %17, 2147483648
  %.not.i.i4 = icmp ult i64 %18, 4294967296
  br i1 %.not.i.i4, label %RSTRING_LENINT.exit, label %19

19:                                               ; preds = %RSTRING_PTR.exit
  call void @rb_out_of_int(i64 noundef %17) #9
  unreachable

RSTRING_LENINT.exit:                              ; preds = %RSTRING_PTR.exit
  %20 = trunc i64 %17 to i32
  %21 = call i32 @TS_MSG_IMPRINT_set_msg(ptr noundef %9, ptr noundef %.sroa.2.0.i, i32 noundef %20) #7
  %.not3 = icmp eq i32 %21, 0
  br i1 %.not3, label %22, label %24

22:                                               ; preds = %RSTRING_LENINT.exit
  %23 = load i64, ptr @eTimestampError, align 8, !tbaa !6
  call void (i64, ptr, ...) @ossl_raise(i64 noundef %23, ptr noundef nonnull @.str.74) #8
  unreachable

24:                                               ; preds = %RSTRING_LENINT.exit
  %25 = load i64, ptr %3, align 8, !tbaa !6
  ret i64 %25
}